(dp0
S'METTS MARK'
p1
(dp2
S'to_messages'
p3
I807
sS'deferral_payments'
p4
I0
sS'expenses'
p5
I94299
sS'poi'
p6
I0
sS'deferred_income'
p7
I0
sS'email_address'
p8
S'mark.metts@enron.com'
p9
sS'long_term_incentive'
p10
I0
sS'fraction_from_poi'
p11
S'0.047'
p12
sS'restricted_stock_deferred'
p13
I0
sS'shared_receipt_with_poi'
p14
I702
sS'loan_advances'
p15
I0
sS'from_messages'
p16
I29
sS'other'
p17
I1740
sS'director_fees'
p18
I0
sS'bonus'
p19
I600000
sS'total_stock_value'
p20
I585062
sS'from_poi_to_this_person'
p21
I38
sS'from_this_person_to_poi'
p22
I1
sS'restricted_stock'
p23
I585062
sS'salary'
p24
I365788
sS'total_payments'
p25
I1061827
sS'fraction_to_poi'
p26
S'0.034'
p27
sS'exercised_stock_options'
p28
I0
ssS'BAXTER JOHN C'
p29
(dp30
g3
I0
sg4
I1295738
sg5
I11200
sg6
I0
sg7
I-1386055
sg8
S'NaN'
p31
sg10
I1586055
sg11
S'0.000'
p32
sg13
I0
sg14
I0
sg15
I0
sg16
I0
sg17
I2660303
sg18
I0
sg19
I1200000
sg20
I10623258
sg21
I0
sg22
I0
sg23
I3942714
sg24
I267102
sg25
I5634343
sg26
S'0.000'
p33
sg28
I6680544
ssS'ELLIOTT STEVEN'
p34
(dp35
g3
I0
sg4
I0
sg5
I78552
sg6
I0
sg7
I-400729
sg8
S'steven.elliott@enron.com'
p36
sg10
I0
sg11
S'0.000'
p37
sg13
I0
sg14
I0
sg15
I0
sg16
I0
sg17
I12961
sg18
I0
sg19
I350000
sg20
I6678735
sg21
I0
sg22
I0
sg23
I1788391
sg24
I170941
sg25
I211725
sg26
S'0.000'
p38
sg28
I4890344
ssS'CORDES WILLIAM R'
p39
(dp40
g3
I764
sg4
I0
sg5
I0
sg6
I0
sg7
I0
sg8
S'bill.cordes@enron.com'
p41
sg10
I0
sg11
S'0.013'
p42
sg13
I0
sg14
I58
sg15
I0
sg16
I12
sg17
I0
sg18
I0
sg19
I0
sg20
I1038185
sg21
I10
sg22
I0
sg23
I386335
sg24
I0
sg25
I0
sg26
S'0.000'
p43
sg28
I651850
ssS'HANNON KEVIN P'
p44
(dp45
g3
I1045
sg4
I0
sg5
I34039
sg6
I1
sg7
I-3117011
sg8
S'kevin.hannon@enron.com'
p46
sg10
I1617011
sg11
S'0.031'
p47
sg13
I0
sg14
I1035
sg15
I0
sg16
I32
sg17
I11350
sg18
I0
sg19
I1500000
sg20
I6391065
sg21
I32
sg22
I21
sg23
I853064
sg24
I243293
sg25
I288682
sg26
S'0.656'
p48
sg28
I5538001
ssS'MORDAUNT KRISTINA M'
p49
(dp50
g3
I0
sg4
I0
sg5
I35018
sg6
I0
sg7
I0
sg8
S'kristina.mordaunt@enron.com'
p51
sg10
I0
sg11
S'0.000'
p52
sg13
I0
sg14
I0
sg15
I0
sg16
I0
sg17
I1411
sg18
I0
sg19
I325000
sg20
I208510
sg21
I0
sg22
I0
sg23
I208510
sg24
I267093
sg25
I628522
sg26
S'0.000'
p53
sg28
I0
ssS'MEYER ROCKFORD G'
p54
(dp55
g3
I232
sg4
I1848227
sg5
I0
sg6
I0
sg7
I0
sg8
S'rockford.meyer@enron.com'
p56
sg10
I0
sg11
S'0.000'
p57
sg13
I0
sg14
I22
sg15
I0
sg16
I28
sg17
I0
sg18
I0
sg19
I0
sg20
I955873
sg21
I0
sg22
I0
sg23
I462384
sg24
I0
sg25
I1848227
sg26
S'0.000'
p58
sg28
I493489
ssS'MCMAHON JEFFREY'
p59
(dp60
g3
I2355
sg4
I0
sg5
I137108
sg6
I0
sg7
I0
sg8
S'jeffrey.mcmahon@enron.com'
p61
sg10
I694862
sg11
S'0.025'
p62
sg13
I0
sg14
I2228
sg15
I0
sg16
I48
sg17
I297353
sg18
I0
sg19
I2600000
sg20
I1662855
sg21
I58
sg22
I26
sg23
I558801
sg24
I370448
sg25
I4099771
sg26
S'0.542'
p63
sg28
I1104054
ssS'HORTON STANLEY C'
p64
(dp65
g3
I2350
sg4
I3131860
sg5
I0
sg6
I0
sg7
I0
sg8
S'stanley.horton@enron.com'
p66
sg10
I0
sg11
S'0.019'
p67
sg13
I0
sg14
I1074
sg15
I0
sg16
I1073
sg17
I0
sg18
I0
sg19
I0
sg20
I7256648
sg21
I44
sg22
I15
sg23
I2046079
sg24
I0
sg25
I3131860
sg26
S'0.014'
p68
sg28
I5210569
ssS'PIPER GREGORY F'
p69
(dp70
g3
I1238
sg4
I1130036
sg5
I43057
sg6
I0
sg7
I-33333
sg8
S'greg.piper@enron.com'
p71
sg10
I0
sg11
S'0.049'
p72
sg13
I-409554
sg14
I742
sg15
I0
sg16
I222
sg17
I778
sg18
I0
sg19
I400000
sg20
I880290
sg21
I61
sg22
I48
sg23
I409554
sg24
I197091
sg25
I1737629
sg26
S'0.216'
p73
sg28
I880290
ssS'HUMPHREY GENE E'
p74
(dp75
g3
I128
sg4
I2964506
sg5
I4994
sg6
I0
sg7
I0
sg8
S'gene.humphrey@enron.com'
p76
sg10
I0
sg11
S'0.078'
p77
sg13
I0
sg14
I119
sg15
I0
sg16
I17
sg17
I0
sg18
I0
sg19
I0
sg20
I2282768
sg21
I10
sg22
I17
sg23
I0
sg24
I130724
sg25
I3100224
sg26
S'1.000'
p78
sg28
I2282768
ssS'UMANOFF ADAM S'
p79
(dp80
g3
I111
sg4
I0
sg5
I53122
sg6
I0
sg7
I0
sg8
S'adam.umanoff@enron.com'
p81
sg10
I0
sg11
S'0.108'
p82
sg13
I0
sg14
I41
sg15
I0
sg16
I18
sg17
I0
sg18
I0
sg19
I788750
sg20
I0
sg21
I12
sg22
I0
sg23
I0
sg24
I288589
sg25
I1130461
sg26
S'0.000'
p83
sg28
I0
ssS'BLACHMAN JEREMY M'
p84
(dp85
g3
I2475
sg4
I0
sg5
I84208
sg6
I0
sg7
I0
sg8
S'jeremy.blachman@enron.com'
p86
sg10
I831809
sg11
S'0.010'
p87
sg13
I0
sg14
I2326
sg15
I0
sg16
I14
sg17
I272
sg18
I0
sg19
I850000
sg20
I954354
sg21
I25
sg22
I2
sg23
I189041
sg24
I248546
sg25
I2014835
sg26
S'0.143'
p88
sg28
I765313
ssS'SUNDE MARTIN'
p89
(dp90
g3
I2647
sg4
I0
sg5
I0
sg6
I0
sg7
I0
sg8
S'marty.sunde@enron.com'
p91
sg10
I476451
sg11
S'0.014'
p92
sg13
I0
sg14
I2565
sg15
I0
sg16
I38
sg17
I111122
sg18
I0
sg19
I700000
sg20
I698920
sg21
I37
sg22
I13
sg23
I698920
sg24
I257486
sg25
I1545059
sg26
S'0.342'
p93
sg28
I0
ssS'GIBBS DANA R'
p94
(dp95
g3
I169
sg4
I504610
sg5
I0
sg6
I0
sg7
I0
sg8
S'dana.gibbs@enron.com'
p96
sg10
I461912
sg11
S'0.000'
p97
sg13
I0
sg14
I23
sg15
I0
sg16
I12
sg17
I0
sg18
I0
sg19
I0
sg20
I2218275
sg21
I0
sg22
I0
sg23
I0
sg24
I0
sg25
I966522
sg26
S'0.000'
p98
sg28
I2218275
ssS'LOWRY CHARLES P'
p99
(dp100
g3
I0
sg4
I0
sg5
I0
sg6
I0
sg7
I0
sg8
g31
sg10
I0
sg11
S'0.000'
p101
sg13
I-153686
sg14
I0
sg15
I0
sg16
I0
sg17
I0
sg18
I0
sg19
I0
sg20
I372205
sg21
I0
sg22
I0
sg23
I153686
sg24
I0
sg25
I0
sg26
S'0.000'
p102
sg28
I372205
ssS'COLWELL WESLEY'
p103
(dp104
g3
I1758
sg4
I27610
sg5
I16514
sg6
I1
sg7
I-144062
sg8
S'wes.colwell@enron.com'
p105
sg10
I0
sg11
S'0.137'
p106
sg13
I0
sg14
I1132
sg15
I0
sg16
I40
sg17
I101740
sg18
I0
sg19
I1200000
sg20
I698242
sg21
I240
sg22
I11
sg23
I698242
sg24
I288542
sg25
I1490344
sg26
S'0.275'
p107
sg28
I0
ssS'MULLER MARK S'
p108
(dp109
g3
I136
sg4
I842924
sg5
I0
sg6
I0
sg7
I-719000
sg8
S's..muller@enron.com'
p110
sg10
I1725545
sg11
S'0.088'
p111
sg13
I0
sg14
I114
sg15
I0
sg16
I16
sg17
I947
sg18
I0
sg19
I1100000
sg20
I1416848
sg21
I12
sg22
I0
sg23
I360528
sg24
I251654
sg25
I3202070
sg26
S'0.000'
p112
sg28
I1056320
ssS'JACKSON CHARLENE R'
p113
(dp114
g3
I258
sg4
I0
sg5
I10181
sg6
I0
sg7
I0
sg8
S'charlene.jackson@enron.com'
p115
sg10
I0
sg11
S'0.097'
p116
sg13
I0
sg14
I117
sg15
I0
sg16
I56
sg17
I2435
sg18
I0
sg19
I250000
sg20
I725735
sg21
I25
sg22
I19
sg23
I540672
sg24
I288558
sg25
I551174
sg26
S'0.339'
p117
sg28
I185063
ssS'WESTFAHL RICHARD K'
p118
(dp119
g3
I0
sg4
I0
sg5
I51870
sg6
I0
sg7
I-10800
sg8
S'dick.westfahl@enron.com'
p120
sg10
I256191
sg11
S'0.000'
p121
sg13
I0
sg14
I0
sg15
I0
sg16
I0
sg17
I401130
sg18
I0
sg19
I0
sg20
I384930
sg21
I0
sg22
I0
sg23
I384930
sg24
I63744
sg25
I762135
sg26
S'0.000'
p122
sg28
I0
ssS'WALTERS GARETH W'
p123
(dp124
g3
I0
sg4
I53625
sg5
I33785
sg6
I0
sg7
I0
sg8
g31
sg10
I0
sg11
S'0.000'
p125
sg13
I0
sg14
I0
sg15
I0
sg16
I0
sg17
I0
sg18
I0
sg19
I0
sg20
I1030329
sg21
I0
sg22
I0
sg23
I0
sg24
I0
sg25
I87410
sg26
S'0.000'
p126
sg28
I1030329
ssS'WALLS JR ROBERT H'
p127
(dp128
g3
I671
sg4
I0
sg5
I50936
sg6
I0
sg7
I0
sg8
S'rob.walls@enron.com'
p129
sg10
I540751
sg11
S'0.025'
p130
sg13
I0
sg14
I215
sg15
I0
sg16
I146
sg17
I2
sg18
I0
sg19
I850000
sg20
I5898997
sg21
I17
sg22
I0
sg23
I1552453
sg24
I357091
sg25
I1798780
sg26
S'0.000'
p131
sg28
I4346544
ssS'KITCHEN LOUISE'
p132
(dp133
g3
I8305
sg4
I0
sg5
I5774
sg6
I0
sg7
I0
sg8
S'louise.kitchen@enron.com'
p134
sg10
I0
sg11
S'0.030'
p135
sg13
I0
sg14
I3669
sg15
I0
sg16
I1728
sg17
I93925
sg18
I0
sg19
I3100000
sg20
I547143
sg21
I251
sg22
I194
sg23
I466101
sg24
I271442
sg25
I3471141
sg26
S'0.112'
p136
sg28
I81042
ssS'CHAN RONNIE'
p137
(dp138
g3
I0
sg4
I0
sg5
I0
sg6
I0
sg7
I-98784
sg8
g31
sg10
I0
sg11
S'0.000'
p139
sg13
I-32460
sg14
I0
sg15
I0
sg16
I0
sg17
I0
sg18
I98784
sg19
I0
sg20
I0
sg21
I0
sg22
I0
sg23
I32460
sg24
I0
sg25
I0
sg26
S'0.000'
p140
sg28
I0
ssS'BELFER ROBERT'
p141
(dp142
g3
I0
sg4
I-102500
sg5
I0
sg6
I0
sg7
I0
sg8
g31
sg10
I0
sg11
S'0.000'
p143
sg13
I44093
sg14
I0
sg15
I0
sg16
I0
sg17
I0
sg18
I3285
sg19
I0
sg20
I-44093
sg21
I0
sg22
I0
sg23
I0
sg24
I0
sg25
I102500
sg26
S'0.000'
p144
sg28
I3285
ssS'SHANKMAN JEFFREY A'
p145
(dp146
g3
I3221
sg4
I0
sg5
I178979
sg6
I0
sg7
I0
sg8
S'jeffrey.shankman@enron.com'
p147
sg10
I554422
sg11
S'0.029'
p148
sg13
I0
sg14
I1730
sg15
I0
sg16
I2681
sg17
I1191
sg18
I0
sg19
I2000000
sg20
I2072035
sg21
I94
sg22
I83
sg23
I630137
sg24
I304110
sg25
I3038702
sg26
S'0.031'
p149
sg28
I1441898
ssS'WODRASKA JOHN'
p150
(dp151
g3
I0
sg4
I0
sg5
I0
sg6
I0
sg7
I0
sg8
S'john.wodraska@enron.com'
p152
sg10
I0
sg11
S'0.000'
p153
sg13
I0
sg14
I0
sg15
I0
sg16
I0
sg17
I189583
sg18
I0
sg19
I0
sg20
I0
sg21
I0
sg22
I0
sg23
I0
sg24
I0
sg25
I189583
sg26
S'0.000'
p154
sg28
I0
ssS'BERGSIEKER RICHARD P'
p155
(dp156
g3
I383
sg4
I0
sg5
I59175
sg6
I0
sg7
I-485813
sg8
S'rick.bergsieker@enron.com'
p157
sg10
I180250
sg11
S'0.010'
p158
sg13
I0
sg14
I233
sg15
I0
sg16
I59
sg17
I427316
sg18
I0
sg19
I250000
sg20
I659249
sg21
I4
sg22
I0
sg23
I659249
sg24
I187922
sg25
I618850
sg26
S'0.000'
p159
sg28
I0
ssS'URQUHART JOHN A'
p160
(dp161
g3
I0
sg4
I0
sg5
I228656
sg6
I0
sg7
I-36666
sg8
g31
sg10
I0
sg11
S'0.000'
p162
sg13
I0
sg14
I0
sg15
I0
sg16
I0
sg17
I0
sg18
I36666
sg19
I0
sg20
I0
sg21
I0
sg22
I0
sg23
I0
sg24
I0
sg25
I228656
sg26
S'0.000'
p163
sg28
I0
ssS'BIBI PHILIPPE A'
p164
(dp165
g3
I1607
sg4
I0
sg5
I38559
sg6
I0
sg7
I0
sg8
S'philippe.bibi@enron.com'
p166
sg10
I369721
sg11
S'0.014'
p167
sg13
I0
sg14
I1336
sg15
I0
sg16
I40
sg17
I425688
sg18
I0
sg19
I1000000
sg20
I1843816
sg21
I23
sg22
I8
sg23
I378082
sg24
I213625
sg25
I2047593
sg26
S'0.200'
p168
sg28
I1465734
ssS'RIEKER PAULA H'
p169
(dp170
g3
I1328
sg4
I214678
sg5
I33271
sg6
I1
sg7
I-100000
sg8
S'paula.rieker@enron.com'
p171
sg10
I0
sg11
S'0.026'
p172
sg13
I0
sg14
I1258
sg15
I0
sg16
I82
sg17
I1950
sg18
I0
sg19
I700000
sg20
I1918887
sg21
I35
sg22
I48
sg23
I283649
sg24
I249201
sg25
I1099100
sg26
S'0.585'
p173
sg28
I1635238
ssS'WHALEY DAVID A'
p174
(dp175
g3
I0
sg4
I0
sg5
I0
sg6
I0
sg7
I0
sg8
g31
sg10
I0
sg11
S'0.000'
p176
sg13
I0
sg14
I0
sg15
I0
sg16
I0
sg17
I0
sg18
I0
sg19
I0
sg20
I98718
sg21
I0
sg22
I0
sg23
I0
sg24
I0
sg25
I0
sg26
S'0.000'
p177
sg28
I98718
ssS'BECK SALLY W'
p178
(dp179
g3
I7315
sg4
I0
sg5
I37172
sg6
I0
sg7
I0
sg8
S'sally.beck@enron.com'
p180
sg10
I0
sg11
S'0.020'
p181
sg13
I0
sg14
I2639
sg15
I0
sg16
I4343
sg17
I566
sg18
I0
sg19
I700000
sg20
I126027
sg21
I144
sg22
I386
sg23
I126027
sg24
I231330
sg25
I969068
sg26
S'0.089'
p182
sg28
I0
ssS'HAUG DAVID L'
p183
(dp184
g3
I573
sg4
I0
sg5
I475
sg6
I0
sg7
I0
sg8
S'david.haug@enron.com'
p185
sg10
I0
sg11
S'0.007'
p186
sg13
I0
sg14
I471
sg15
I0
sg16
I19
sg17
I0
sg18
I0
sg19
I0
sg20
I2217299
sg21
I4
sg22
I7
sg23
I2217299
sg24
I0
sg25
I475
sg26
S'0.368'
p187
sg28
I0
ssS'ECHOLS JOHN B'
p188
(dp189
g3
I0
sg4
I0
sg5
I21530
sg6
I0
sg7
I0
sg8
S'john.echols@enron.com'
p190
sg10
I2234774
sg11
S'0.000'
p191
sg13
I0
sg14
I0
sg15
I0
sg16
I0
sg17
I53775
sg18
I0
sg19
I200000
sg20
I1008941
sg21
I0
sg22
I0
sg23
I407503
sg24
I182245
sg25
I2692324
sg26
S'0.000'
p192
sg28
I601438
ssS'MENDELSOHN JOHN'
p193
(dp194
g3
I0
sg4
I0
sg5
I148
sg6
I0
sg7
I-103750
sg8
g31
sg10
I0
sg11
S'0.000'
p195
sg13
I0
sg14
I0
sg15
I0
sg16
I0
sg17
I0
sg18
I103750
sg19
I0
sg20
I0
sg21
I0
sg22
I0
sg23
I0
sg24
I0
sg25
I148
sg26
S'0.000'
p196
sg28
I0
ssS'HICKERSON GARY J'
p197
(dp198
g3
I1320
sg4
I0
sg5
I98849
sg6
I0
sg7
I0
sg8
S'gary.hickerson@enron.com'
p199
sg10
I69223
sg11
S'0.030'
p200
sg13
I0
sg14
I900
sg15
I0
sg16
I27
sg17
I1936
sg18
I0
sg19
I1700000
sg20
I441096
sg21
I40
sg22
I1
sg23
I441096
sg24
I211788
sg25
I2081796
sg26
S'0.037'
p201
sg28
I0
ssS'CLINE KENNETH W'
p202
(dp203
g3
I0
sg4
I0
sg5
I0
sg6
I0
sg7
I0
sg8
g31
sg10
I0
sg11
S'0.000'
p204
sg13
I-472568
sg14
I0
sg15
I0
sg16
I0
sg17
I0
sg18
I0
sg19
I0
sg20
I189518
sg21
I0
sg22
I0
sg23
I662086
sg24
I0
sg25
I0
sg26
S'0.000'
p205
sg28
I0
ssS'LEWIS RICHARD'
p206
(dp207
g3
I952
sg4
I0
sg5
I0
sg6
I0
sg7
I0
sg8
S'richard.lewis@enron.com'
p208
sg10
I0
sg11
S'0.011'
p209
sg13
I0
sg14
I739
sg15
I0
sg16
I26
sg17
I0
sg18
I0
sg19
I0
sg20
I850477
sg21
I10
sg22
I0
sg23
I0
sg24
I0
sg25
I0
sg26
S'0.000'
p210
sg28
I850477
ssS'HAYES ROBERT E'
p211
(dp212
g3
I504
sg4
I7961
sg5
I0
sg6
I0
sg7
I0
sg8
S'robert.hayes@enron.com'
p213
sg10
I0
sg11
S'0.032'
p214
sg13
I0
sg14
I50
sg15
I0
sg16
I12
sg17
I0
sg18
I0
sg19
I0
sg20
I151418
sg21
I16
sg22
I0
sg23
I151418
sg24
I0
sg25
I7961
sg26
S'0.000'
p215
sg28
I0
ssS'MCCARTY DANNY J'
p216
(dp217
g3
I1433
sg4
I0
sg5
I0
sg6
I0
sg7
I0
sg8
S'danny.mccarty@enron.com'
p218
sg10
I0
sg11
S'0.017'
p219
sg13
I0
sg14
I508
sg15
I0
sg16
I215
sg17
I0
sg18
I0
sg19
I0
sg20
I758931
sg21
I25
sg22
I2
sg23
I94556
sg24
I0
sg25
I0
sg26
S'0.009'
p220
sg28
I664375
ssS'KOPPER MICHAEL J'
p221
(dp222
g3
I0
sg4
I0
sg5
I118134
sg6
I1
sg7
I0
sg8
S'michael.kopper@enron.com'
p223
sg10
I602671
sg11
S'0.000'
p224
sg13
I0
sg14
I0
sg15
I0
sg16
I0
sg17
I907502
sg18
I0
sg19
I800000
sg20
I985032
sg21
I0
sg22
I0
sg23
I985032
sg24
I224305
sg25
I2652612
sg26
S'0.000'
p225
sg28
I0
ssS'LEFF DANIEL P'
p226
(dp227
g3
I2822
sg4
I0
sg5
I0
sg6
I0
sg7
I0
sg8
S'dan.leff@enron.com'
p228
sg10
I1387399
sg11
S'0.024'
p229
sg13
I0
sg14
I2672
sg15
I0
sg16
I63
sg17
I3083
sg18
I0
sg19
I1000000
sg20
I360528
sg21
I67
sg22
I14
sg23
I360528
sg24
I273746
sg25
I2664228
sg26
S'0.222'
p230
sg28
I0
ssS'LAVORATO JOHN J'
p231
(dp232
g3
I7259
sg4
I0
sg5
I49537
sg6
I0
sg7
I0
sg8
S'john.lavorato@enron.com'
p233
sg10
I2035380
sg11
S'0.073'
p234
sg13
I0
sg14
I3962
sg15
I0
sg16
I2585
sg17
I1552
sg18
I0
sg19
I8000000
sg20
I5167144
sg21
I528
sg22
I411
sg23
I1008149
sg24
I339288
sg25
I10425757
sg26
S'0.159'
p235
sg28
I4158995
ssS'BERBERIAN DAVID'
p236
(dp237
g3
I0
sg4
I0
sg5
I11892
sg6
I0
sg7
I0
sg8
S'david.berberian@enron.com'
p238
sg10
I0
sg11
S'0.000'
p239
sg13
I0
sg14
I0
sg15
I0
sg16
I0
sg17
I0
sg18
I0
sg19
I0
sg20
I2493616
sg21
I0
sg22
I0
sg23
I869220
sg24
I216582
sg25
I228474
sg26
S'0.000'
p240
sg28
I1624396
ssS'DETMERING TIMOTHY J'
p241
(dp242
g3
I0
sg4
I875307
sg5
I52255
sg6
I0
sg7
I-775241
sg8
S'timothy.detmering@enron.com'
p243
sg10
I415657
sg11
S'0.000'
p244
sg13
I-315068
sg14
I0
sg15
I0
sg16
I0
sg17
I1105
sg18
I0
sg19
I425000
sg20
I2027865
sg21
I0
sg22
I0
sg23
I315068
sg24
I210500
sg25
I1204583
sg26
S'0.000'
p245
sg28
I2027865
ssS'WAKEHAM JOHN'
p246
(dp247
g3
I0
sg4
I0
sg5
I103773
sg6
I0
sg7
I0
sg8
g31
sg10
I0
sg11
S'0.000'
p248
sg13
I0
sg14
I0
sg15
I0
sg16
I0
sg17
I0
sg18
I109298
sg19
I0
sg20
I0
sg21
I0
sg22
I0
sg23
I0
sg24
I0
sg25
I213071
sg26
S'0.000'
p249
sg28
I0
ssS'POWERS WILLIAM'
p250
(dp251
g3
I653
sg4
I0
sg5
I0
sg6
I0
sg7
I-17500
sg8
S'ken.powers@enron.com'
p252
sg10
I0
sg11
S'0.000'
p253
sg13
I0
sg14
I12
sg15
I0
sg16
I26
sg17
I0
sg18
I17500
sg19
I0
sg20
I0
sg21
I0
sg22
I0
sg23
I0
sg24
I0
sg25
I0
sg26
S'0.000'
p254
sg28
I0
ssS'GOLD JOSEPH'
p255
(dp256
g3
I0
sg4
I0
sg5
I0
sg6
I0
sg7
I0
sg8
S'joe.gold@enron.com'
p257
sg10
I304805
sg11
S'0.000'
p258
sg13
I0
sg14
I0
sg15
I0
sg16
I0
sg17
I819288
sg18
I0
sg19
I750000
sg20
I877611
sg21
I0
sg22
I0
sg23
I441096
sg24
I272880
sg25
I2146973
sg26
S'0.000'
p259
sg28
I436515
ssS'BANNANTINE JAMES M'
p260
(dp261
g3
I566
sg4
I0
sg5
I56301
sg6
I0
sg7
I-5104
sg8
S'james.bannantine@enron.com'
p262
sg10
I0
sg11
S'0.069'
p263
sg13
I-560222
sg14
I465
sg15
I0
sg16
I29
sg17
I864523
sg18
I0
sg19
I0
sg20
I5243487
sg21
I39
sg22
I0
sg23
I1757552
sg24
I477
sg25
I916197
sg26
S'0.000'
p264
sg28
I4046157
ssS'DUNCAN JOHN H'
p265
(dp266
g3
I0
sg4
I0
sg5
I0
sg6
I0
sg7
I-25000
sg8
g31
sg10
I0
sg11
S'0.000'
p267
sg13
I0
sg14
I0
sg15
I0
sg16
I0
sg17
I0
sg18
I102492
sg19
I0
sg20
I371750
sg21
I0
sg22
I0
sg23
I0
sg24
I0
sg25
I77492
sg26
S'0.000'
p268
sg28
I371750
ssS'SHAPIRO RICHARD S'
p269
(dp270
g3
I15149
sg4
I0
sg5
I137767
sg6
I0
sg7
I0
sg8
S'richard.shapiro@enron.com'
p271
sg10
I0
sg11
S'0.005'
p272
sg13
I0
sg14
I4527
sg15
I0
sg16
I1215
sg17
I705
sg18
I0
sg19
I650000
sg20
I987001
sg21
I74
sg22
I65
sg23
I379164
sg24
I269076
sg25
I1057548
sg26
S'0.053'
p273
sg28
I607837
ssS'SHERRIFF JOHN R'
p274
(dp275
g3
I3187
sg4
I0
sg5
I0
sg6
I0
sg7
I0
sg8
S'john.sherriff@enron.com'
p276
sg10
I554422
sg11
S'0.009'
p277
sg13
I0
sg14
I2103
sg15
I0
sg16
I92
sg17
I1852186
sg18
I0
sg19
I1500000
sg20
I3128982
sg21
I28
sg22
I23
sg23
I1293424
sg24
I428780
sg25
I4335388
sg26
S'0.250'
p278
sg28
I1835558
ssS'SHELBY REX'
p279
(dp280
g3
I225
sg4
I0
sg5
I22884
sg6
I1
sg7
I-4167
sg8
S'rex.shelby@enron.com'
p281
sg10
I0
sg11
S'0.058'
p282
sg13
I0
sg14
I91
sg15
I0
sg16
I39
sg17
I1573324
sg18
I0
sg19
I200000
sg20
I2493616
sg21
I13
sg22
I14
sg23
I869220
sg24
I211844
sg25
I2003885
sg26
S'0.359'
p283
sg28
I1624396
ssS'LEMAISTRE CHARLES'
p284
(dp285
g3
I0
sg4
I0
sg5
I0
sg6
I0
sg7
I-25000
sg8
g31
sg10
I0
sg11
S'0.000'
p286
sg13
I0
sg14
I0
sg15
I0
sg16
I0
sg17
I0
sg18
I112492
sg19
I0
sg20
I412878
sg21
I0
sg22
I0
sg23
I0
sg24
I0
sg25
I87492
sg26
S'0.000'
p287
sg28
I412878
ssS'DEFFNER JOSEPH M'
p288
(dp289
g3
I714
sg4
I0
sg5
I41626
sg6
I0
sg7
I0
sg8
S'joseph.deffner@enron.com'
p290
sg10
I335349
sg11
S'0.161'
p291
sg13
I0
sg14
I552
sg15
I0
sg16
I74
sg17
I25553
sg18
I0
sg19
I600000
sg20
I159211
sg21
I115
sg22
I4
sg23
I141833
sg24
I206121
sg25
I1208649
sg26
S'0.054'
p292
sg28
I17378
ssS'KISHKILL JOSEPH G'
p293
(dp294
g3
I0
sg4
I0
sg5
I116335
sg6
I0
sg7
I-51042
sg8
S'joe.kishkill@enron.com'
p295
sg10
I0
sg11
S'0.000'
p296
sg13
I0
sg14
I0
sg15
I0
sg16
I0
sg17
I465357
sg18
I0
sg19
I0
sg20
I1034346
sg21
I0
sg22
I0
sg23
I1034346
sg24
I174246
sg25
I704896
sg26
S'0.000'
p297
sg28
I0
ssS'WHALLEY LAWRENCE G'
p298
(dp299
g3
I6019
sg4
I0
sg5
I57838
sg6
I0
sg7
I0
sg8
S'greg.whalley@enron.com'
p300
sg10
I808346
sg11
S'0.031'
p301
sg13
I0
sg14
I3920
sg15
I0
sg16
I556
sg17
I301026
sg18
I0
sg19
I3000000
sg20
I6079137
sg21
I186
sg22
I24
sg23
I2796177
sg24
I510364
sg25
I4677574
sg26
S'0.043'
p302
sg28
I3282960
ssS'MCCONNELL MICHAEL S'
p303
(dp304
g3
I3329
sg4
I0
sg5
I81364
sg6
I0
sg7
I0
sg8
S'mike.mcconnell@enron.com'
p305
sg10
I554422
sg11
S'0.028'
p306
sg13
I0
sg14
I2189
sg15
I0
sg16
I2742
sg17
I540
sg18
I0
sg19
I1100000
sg20
I3101279
sg21
I92
sg22
I194
sg23
I1478269
sg24
I365038
sg25
I2101364
sg26
S'0.071'
p307
sg28
I1623010
ssS'PIRO JIM'
p308
(dp309
g3
I58
sg4
I0
sg5
I0
sg6
I0
sg7
I0
sg8
S'jim.piro@enron.com'
p310
sg10
I0
sg11
S'0.000'
p311
sg13
I0
sg14
I3
sg15
I0
sg16
I16
sg17
I0
sg18
I0
sg19
I0
sg20
I47304
sg21
I0
sg22
I1
sg23
I47304
sg24
I0
sg25
I0
sg26
S'0.062'
p312
sg28
I0
ssS'DELAINEY DAVID W'
p313
(dp314
g3
I3093
sg4
I0
sg5
I86174
sg6
I1
sg7
I0
sg8
S'david.delainey@enron.com'
p315
sg10
I1294981
sg11
S'0.021'
p316
sg13
I0
sg14
I2097
sg15
I0
sg16
I3069
sg17
I1661
sg18
I0
sg19
I3000000
sg20
I3614261
sg21
I66
sg22
I609
sg23
I1323148
sg24
I365163
sg25
I4747979
sg26
S'0.198'
p317
sg28
I2291113
ssS'SULLIVAN-SHAKLOVITZ COLLEEN'
p318
(dp319
g3
I0
sg4
I181993
sg5
I0
sg6
I0
sg7
I0
sg8
g31
sg10
I554422
sg11
S'0.000'
p320
sg13
I0
sg14
I0
sg15
I0
sg16
I0
sg17
I162
sg18
I0
sg19
I100000
sg20
I1362375
sg21
I0
sg22
I0
sg23
I0
sg24
I162779
sg25
I999356
sg26
S'0.000'
p321
sg28
I1362375
ssS'WROBEL BRUCE'
p322
(dp323
g3
I0
sg4
I0
sg5
I0
sg6
I0
sg7
I0
sg8
g31
sg10
I0
sg11
S'0.000'
p324
sg13
I0
sg14
I0
sg15
I0
sg16
I0
sg17
I0
sg18
I0
sg19
I0
sg20
I139130
sg21
I0
sg22
I0
sg23
I0
sg24
I0
sg25
I0
sg26
S'0.000'
p325
sg28
I139130
ssS'LINDHOLM TOD A'
p326
(dp327
g3
I0
sg4
I204075
sg5
I57727
sg6
I0
sg7
I0
sg8
S'tod.lindholm@enron.com'
p328
sg10
I175000
sg11
S'0.000'
p329
sg13
I0
sg14
I0
sg15
I0
sg16
I0
sg17
I2630
sg18
I0
sg19
I200000
sg20
I3064208
sg21
I0
sg22
I0
sg23
I514847
sg24
I236457
sg25
I875889
sg26
S'0.000'
p330
sg28
I2549361
ssS'MEYER JEROME J'
p331
(dp332
g3
I0
sg4
I0
sg5
I2151
sg6
I0
sg7
I-38346
sg8
g31
sg10
I0
sg11
S'0.000'
p333
sg13
I0
sg14
I0
sg15
I0
sg16
I0
sg17
I0
sg18
I38346
sg19
I0
sg20
I0
sg21
I0
sg22
I0
sg23
I0
sg24
I0
sg25
I2151
sg26
S'0.000'
p334
sg28
I0
ssS'LAY KENNETH L'
p335
(dp336
g3
I4273
sg4
I202911
sg5
I99832
sg6
I1
sg7
I-300000
sg8
S'kenneth.lay@enron.com'
p337
sg10
I3600000
sg11
S'0.029'
p338
sg13
I0
sg14
I2411
sg15
I81525000
sg16
I36
sg17
I10359729
sg18
I0
sg19
I7000000
sg20
I49110078
sg21
I123
sg22
I16
sg23
I14761694
sg24
I1072321
sg25
I103559793
sg26
S'0.444'
p339
sg28
I34348384
ssS'BUTTS ROBERT H'
p340
(dp341
g3
I0
sg4
I0
sg5
I9410
sg6
I0
sg7
I-75000
sg8
S'bob.butts@enron.com'
p342
sg10
I175000
sg11
S'0.000'
p343
sg13
I0
sg14
I0
sg15
I0
sg16
I0
sg17
I150656
sg18
I0
sg19
I750000
sg20
I417619
sg21
I0
sg22
I0
sg23
I417619
sg24
I261516
sg25
I1271582
sg26
S'0.000'
p344
sg28
I0
ssS'OLSON CINDY K'
p345
(dp346
g3
I1184
sg4
I77716
sg5
I63791
sg6
I0
sg7
I0
sg8
S'cindy.olson@enron.com'
p347
sg10
I100000
sg11
S'0.017'
p348
sg13
I0
sg14
I856
sg15
I0
sg16
I52
sg17
I972
sg18
I0
sg19
I750000
sg20
I2606763
sg21
I20
sg22
I15
sg23
I969729
sg24
I329078
sg25
I1321557
sg26
S'0.288'
p349
sg28
I1637034
ssS'MCDONALD REBECCA'
p350
(dp351
g3
I894
sg4
I0
sg5
I0
sg6
I0
sg7
I0
sg8
S'rebecca.mcdonald@enron.com'
p352
sg10
I0
sg11
S'0.060'
p353
sg13
I0
sg14
I720
sg15
I0
sg16
I13
sg17
I0
sg18
I0
sg19
I0
sg20
I1691366
sg21
I54
sg22
I1
sg23
I934065
sg24
I0
sg25
I0
sg26
S'0.077'
p354
sg28
I757301
ssS'CUMBERLAND MICHAEL S'
p355
(dp356
g3
I0
sg4
I0
sg5
I22344
sg6
I0
sg7
I0
sg8
g31
sg10
I275000
sg11
S'0.000'
p357
sg13
I0
sg14
I0
sg15
I0
sg16
I0
sg17
I713
sg18
I0
sg19
I325000
sg20
I207940
sg21
I0
sg22
I0
sg23
I207940
sg24
I184899
sg25
I807956
sg26
S'0.000'
p358
sg28
I0
ssS'GAHN ROBERT S'
p359
(dp360
g3
I0
sg4
I73122
sg5
I50080
sg6
I0
sg7
I-1042
sg8
g31
sg10
I0
sg11
S'0.000'
p361
sg13
I0
sg14
I0
sg15
I0
sg16
I0
sg17
I76547
sg18
I0
sg19
I509870
sg20
I318607
sg21
I0
sg22
I0
sg23
I235370
sg24
I192008
sg25
I900585
sg26
S'0.000'
p362
sg28
I83237
ssS'MCCLELLAN GEORGE'
p363
(dp364
g3
I1744
sg4
I0
sg5
I228763
sg6
I0
sg7
I-125000
sg8
S'george.mcclellan@enron.com'
p365
sg10
I0
sg11
S'0.030'
p366
sg13
I0
sg14
I1469
sg15
I0
sg16
I49
sg17
I51587
sg18
I0
sg19
I900000
sg20
I947861
sg21
I52
sg22
I0
sg23
I441096
sg24
I263413
sg25
I1318763
sg26
S'0.000'
p367
sg28
I506765
ssS'HERMANN ROBERT J'
p368
(dp369
g3
I0
sg4
I0
sg5
I48357
sg6
I0
sg7
I-280000
sg8
S'robert.hermann@enron.com'
p370
sg10
I150000
sg11
S'0.000'
p371
sg13
I0
sg14
I0
sg15
I0
sg16
I0
sg17
I416441
sg18
I0
sg19
I700000
sg20
I668132
sg21
I0
sg22
I0
sg23
I480632
sg24
I262663
sg25
I1297461
sg26
S'0.000'
p372
sg28
I187500
ssS'SCRIMSHAW MATTHEW'
p373
(dp374
g3
I0
sg4
I0
sg5
I0
sg6
I0
sg7
I0
sg8
S'matthew.scrimshaw@enron.com'
p375
sg10
I0
sg11
S'0.000'
p376
sg13
I0
sg14
I0
sg15
I0
sg16
I0
sg17
I0
sg18
I0
sg19
I0
sg20
I759557
sg21
I0
sg22
I0
sg23
I0
sg24
I0
sg25
I0
sg26
S'0.000'
p377
sg28
I759557
ssS'GATHMANN WILLIAM D'
p378
(dp379
g3
I0
sg4
I0
sg5
I0
sg6
I0
sg7
I0
sg8
g31
sg10
I0
sg11
S'0.000'
p380
sg13
I-72419
sg14
I0
sg15
I0
sg16
I0
sg17
I0
sg18
I0
sg19
I0
sg20
I1945360
sg21
I0
sg22
I0
sg23
I264013
sg24
I0
sg25
I0
sg26
S'0.000'
p381
sg28
I1753766
ssS'HAEDICKE MARK E'
p382
(dp383
g3
I4009
sg4
I2157527
sg5
I76169
sg6
I0
sg7
I-934484
sg8
S'mark.haedicke@enron.com'
p384
sg10
I983346
sg11
S'0.045'
p385
sg13
I-329825
sg14
I1847
sg15
I0
sg16
I1941
sg17
I52382
sg18
I0
sg19
I1150000
sg20
I803094
sg21
I180
sg22
I61
sg23
I524169
sg24
I374125
sg25
I3859065
sg26
S'0.031'
p386
sg28
I608750
ssS'BOWEN JR RAYMOND M'
p387
(dp388
g3
I1858
sg4
I0
sg5
I65907
sg6
I1
sg7
I-833
sg8
S'raymond.bowen@enron.com'
p389
sg10
I974293
sg11
S'0.075'
p390
sg13
I0
sg14
I1593
sg15
I0
sg16
I27
sg17
I1621
sg18
I0
sg19
I1350000
sg20
I252055
sg21
I140
sg22
I15
sg23
I252055
sg24
I278601
sg25
I2669589
sg26
S'0.556'
p391
sg28
I0
ssS'GILLIS JOHN'
p392
(dp393
g3
I0
sg4
I0
sg5
I0
sg6
I0
sg7
I0
sg8
g31
sg10
I0
sg11
S'0.000'
p394
sg13
I0
sg14
I0
sg15
I0
sg16
I0
sg17
I0
sg18
I0
sg19
I0
sg20
I85641
sg21
I0
sg22
I0
sg23
I75838
sg24
I0
sg25
I0
sg26
S'0.000'
p395
sg28
I9803
ssS'FITZGERALD JAY L'
p396
(dp397
g3
I936
sg4
I0
sg5
I23870
sg6
I0
sg7
I0
sg8
S'jay.fitzgerald@enron.com'
p398
sg10
I556416
sg11
S'0.001'
p399
sg13
I0
sg14
I723
sg15
I0
sg16
I16
sg17
I285414
sg18
I0
sg19
I350000
sg20
I1621236
sg21
I1
sg22
I8
sg23
I956775
sg24
I199157
sg25
I1414857
sg26
S'0.500'
p400
sg28
I664461
ssS'MORAN MICHAEL P'
p401
(dp402
g3
I672
sg4
I0
sg5
I0
sg6
I0
sg7
I0
sg8
S'michael.moran@enron.com'
p403
sg10
I0
sg11
S'0.000'
p404
sg13
I0
sg14
I127
sg15
I0
sg16
I19
sg17
I0
sg18
I0
sg19
I0
sg20
I221141
sg21
I0
sg22
I0
sg23
I161602
sg24
I0
sg25
I0
sg26
S'0.000'
p405
sg28
I59539
ssS'REDMOND BRIAN L'
p406
(dp407
g3
I1671
sg4
I0
sg5
I14689
sg6
I0
sg7
I0
sg8
S'brian.redmond@enron.com'
p408
sg10
I0
sg11
S'0.122'
p409
sg13
I0
sg14
I1063
sg15
I0
sg16
I221
sg17
I0
sg18
I0
sg19
I0
sg20
I7890324
sg21
I204
sg22
I49
sg23
I381285
sg24
I96840
sg25
I111529
sg26
S'0.222'
p410
sg28
I7509039
ssS'BAZELIDES PHILIP J'
p411
(dp412
g3
I0
sg4
I684694
sg5
I0
sg6
I0
sg7
I0
sg8
g31
sg10
I93750
sg11
S'0.000'
p413
sg13
I0
sg14
I0
sg15
I0
sg16
I0
sg17
I874
sg18
I0
sg19
I0
sg20
I1599641
sg21
I0
sg22
I0
sg23
I0
sg24
I80818
sg25
I860136
sg26
S'0.000'
p414
sg28
I1599641
ssS'BELDEN TIMOTHY N'
p415
(dp416
g3
I7991
sg4
I2144013
sg5
I17355
sg6
I1
sg7
I-2334434
sg8
S'tim.belden@enron.com'
p417
sg10
I0
sg11
S'0.029'
p418
sg13
I0
sg14
I5521
sg15
I0
sg16
I484
sg17
I210698
sg18
I0
sg19
I5249999
sg20
I1110705
sg21
I228
sg22
I108
sg23
I157569
sg24
I213999
sg25
I5501630
sg26
S'0.223'
p419
sg28
I953136
ssS'DURAN WILLIAM D'
p420
(dp421
g3
I904
sg4
I0
sg5
I25785
sg6
I0
sg7
I0
sg8
S'w.duran@enron.com'
p422
sg10
I1105218
sg11
S'0.117'
p423
sg13
I0
sg14
I599
sg15
I0
sg16
I12
sg17
I1568
sg18
I0
sg19
I750000
sg20
I1640910
sg21
I106
sg22
I3
sg23
I189041
sg24
I210692
sg25
I2093263
sg26
S'0.250'
p424
sg28
I1451869
ssS'THORN TERENCE H'
p425
(dp426
g3
I266
sg4
I16586
sg5
I46145
sg6
I0
sg7
I0
sg8
S'terence.thorn@enron.com'
p427
sg10
I200000
sg11
S'0.000'
p428
sg13
I0
sg14
I73
sg15
I0
sg16
I41
sg17
I426629
sg18
I0
sg19
I0
sg20
I4817796
sg21
I0
sg22
I0
sg23
I365320
sg24
I222093
sg25
I911453
sg26
S'0.000'
p429
sg28
I4452476
ssS'FASTOW ANDREW S'
p430
(dp431
g3
I0
sg4
I0
sg5
I55921
sg6
I1
sg7
I-1386055
sg8
S'andrew.fastow@enron.com'
p432
sg10
I1736055
sg11
S'0.000'
p433
sg13
I0
sg14
I0
sg15
I0
sg16
I0
sg17
I277464
sg18
I0
sg19
I1300000
sg20
I1794412
sg21
I0
sg22
I0
sg23
I1794412
sg24
I440698
sg25
I2424083
sg26
S'0.000'
p434
sg28
I0
ssS'FOY JOE'
p435
(dp436
g3
I57
sg4
I181755
sg5
I0
sg6
I0
sg7
I0
sg8
S'tracy.foy@enron.com'
p437
sg10
I0
sg11
S'0.000'
p438
sg13
I0
sg14
I2
sg15
I0
sg16
I13
sg17
I0
sg18
I0
sg19
I0
sg20
I343434
sg21
I0
sg22
I0
sg23
I0
sg24
I0
sg25
I181755
sg26
S'0.000'
p439
sg28
I343434
ssS'CALGER CHRISTOPHER F'
p440
(dp441
g3
I2598
sg4
I0
sg5
I35818
sg6
I1
sg7
I-262500
sg8
S'christopher.calger@enron.com'
p442
sg10
I375304
sg11
S'0.077'
p443
sg13
I0
sg14
I2188
sg15
I0
sg16
I144
sg17
I486
sg18
I0
sg19
I1250000
sg20
I126027
sg21
I199
sg22
I25
sg23
I126027
sg24
I240189
sg25
I1639297
sg26
S'0.174'
p444
sg28
I0
ssS'RICE KENNETH D'
p445
(dp446
g3
I905
sg4
I0
sg5
I46950
sg6
I1
sg7
I-3504386
sg8
S'ken.rice@enron.com'
p447
sg10
I1617011
sg11
S'0.046'
p448
sg13
I0
sg14
I864
sg15
I0
sg16
I18
sg17
I174839
sg18
I0
sg19
I1750000
sg20
I22542539
sg21
I42
sg22
I4
sg23
I2748364
sg24
I420636
sg25
I505050
sg26
S'0.222'
p449
sg28
I19794175
ssS'KAMINSKI WINCENTY J'
p450
(dp451
g3
I4607
sg4
I0
sg5
I83585
sg6
I0
sg7
I0
sg8
S'vince.kaminski@enron.com'
p452
sg10
I323466
sg11
S'0.009'
p453
sg13
I0
sg14
I583
sg15
I0
sg16
I14368
sg17
I4669
sg18
I0
sg19
I400000
sg20
I976037
sg21
I41
sg22
I171
sg23
I126027
sg24
I275101
sg25
I1086821
sg26
S'0.012'
p454
sg28
I850010
ssS'LOCKHART EUGENE E'
p455
(dp456
g3
I0
sg4
I0
sg5
I0
sg6
I0
sg7
I0
sg8
g31
sg10
I0
sg11
S'0.000'
p457
sg13
I0
sg14
I0
sg15
I0
sg16
I0
sg17
I0
sg18
I0
sg19
I0
sg20
I0
sg21
I0
sg22
I0
sg23
I0
sg24
I0
sg25
I0
sg26
S'0.000'
p458
sg28
I0
ssS'COX DAVID'
p459
(dp460
g3
I102
sg4
I0
sg5
I27861
sg6
I0
sg7
I-41250
sg8
S'chip.cox@enron.com'
p461
sg10
I0
sg11
S'0.000'
p462
sg13
I0
sg14
I71
sg15
I0
sg16
I33
sg17
I494
sg18
I0
sg19
I800000
sg20
I495633
sg21
I0
sg22
I4
sg23
I378082
sg24
I314288
sg25
I1101393
sg26
S'0.121'
p463
sg28
I117551
ssS'OVERDYKE JR JERE C'
p464
(dp465
g3
I0
sg4
I0
sg5
I18834
sg6
I0
sg7
I0
sg8
S'jere.overdyke@enron.com'
p466
sg10
I135836
sg11
S'0.000'
p467
sg13
I0
sg14
I0
sg15
I0
sg16
I0
sg17
I176
sg18
I0
sg19
I0
sg20
I7307594
sg21
I0
sg22
I0
sg23
I2041016
sg24
I94941
sg25
I249787
sg26
S'0.000'
p468
sg28
I5266578
ssS'PEREIRA PAULO V. FERRAZ'
p469
(dp470
g3
I0
sg4
I0
sg5
I27942
sg6
I0
sg7
I-101250
sg8
g31
sg10
I0
sg11
S'0.000'
p471
sg13
I0
sg14
I0
sg15
I0
sg16
I0
sg17
I0
sg18
I101250
sg19
I0
sg20
I0
sg21
I0
sg22
I0
sg23
I0
sg24
I0
sg25
I27942
sg26
S'0.000'
p472
sg28
I0
ssS'STABLER FRANK'
p473
(dp474
g3
I0
sg4
I0
sg5
I16514
sg6
I0
sg7
I0
sg8
S'frank.stabler@enron.com'
p475
sg10
I0
sg11
S'0.000'
p476
sg13
I0
sg14
I0
sg15
I0
sg16
I0
sg17
I356071
sg18
I0
sg19
I500000
sg20
I511734
sg21
I0
sg22
I0
sg23
I511734
sg24
I239502
sg25
I1112087
sg26
S'0.000'
p477
sg28
I0
ssS'SKILLING JEFFREY K'
p478
(dp479
g3
I3627
sg4
I0
sg5
I29336
sg6
I1
sg7
I0
sg8
S'jeff.skilling@enron.com'
p480
sg10
I1920000
sg11
S'0.024'
p481
sg13
I0
sg14
I2042
sg15
I0
sg16
I108
sg17
I22122
sg18
I0
sg19
I5600000
sg20
I26093672
sg21
I88
sg22
I30
sg23
I6843672
sg24
I1111258
sg25
I8682716
sg26
S'0.278'
p482
sg28
I19250000
ssS'BLAKE JR. NORMAN P'
p483
(dp484
g3
I0
sg4
I0
sg5
I1279
sg6
I0
sg7
I-113784
sg8
g31
sg10
I0
sg11
S'0.000'
p485
sg13
I0
sg14
I0
sg15
I0
sg16
I0
sg17
I0
sg18
I113784
sg19
I0
sg20
I0
sg21
I0
sg22
I0
sg23
I0
sg24
I0
sg25
I1279
sg26
S'0.000'
p486
sg28
I0
ssS'SHERRICK JEFFREY B'
p487
(dp488
g3
I613
sg4
I0
sg5
I0
sg6
I0
sg7
I0
sg8
S'jeffrey.sherrick@enron.com'
p489
sg10
I0
sg11
S'0.064'
p490
sg13
I0
sg14
I583
sg15
I0
sg16
I25
sg17
I0
sg18
I0
sg19
I0
sg20
I1832468
sg21
I39
sg22
I18
sg23
I405999
sg24
I0
sg25
I0
sg26
S'0.720'
p491
sg28
I1426469
ssS'PRENTICE JAMES'
p492
(dp493
g3
I0
sg4
I564348
sg5
I0
sg6
I0
sg7
I0
sg8
S'james.prentice@enron.com'
p494
sg10
I0
sg11
S'0.000'
p495
sg13
I0
sg14
I0
sg15
I0
sg16
I0
sg17
I0
sg18
I0
sg19
I0
sg20
I1095040
sg21
I0
sg22
I0
sg23
I208809
sg24
I0
sg25
I564348
sg26
S'0.000'
p496
sg28
I886231
ssS'GRAY RODNEY'
p497
(dp498
g3
I0
sg4
I93585
sg5
I0
sg6
I0
sg7
I0
sg8
g31
sg10
I365625
sg11
S'0.000'
p499
sg13
I0
sg14
I0
sg15
I0
sg16
I0
sg17
I680833
sg18
I0
sg19
I0
sg20
I0
sg21
I0
sg22
I0
sg23
I0
sg24
I6615
sg25
I1146658
sg26
S'0.000'
p500
sg28
I0
ssS'PICKERING MARK R'
p501
(dp502
g3
I898
sg4
I0
sg5
I31653
sg6
I0
sg7
I0
sg8
S'mark.pickering@enron.com'
p503
sg10
I0
sg11
S'0.008'
p504
sg13
I0
sg14
I728
sg15
I400000
sg16
I67
sg17
I0
sg18
I0
sg19
I300000
sg20
I28798
sg21
I7
sg22
I0
sg23
I0
sg24
I655037
sg25
I1386690
sg26
S'0.000'
p505
sg28
I28798
ssS'NOLES JAMES L'
p506
(dp507
g3
I0
sg4
I774401
sg5
I0
sg6
I0
sg7
I0
sg8
g31
sg10
I0
sg11
S'0.000'
p508
sg13
I-94556
sg14
I0
sg15
I0
sg16
I0
sg17
I0
sg18
I0
sg19
I0
sg20
I368705
sg21
I0
sg22
I0
sg23
I463261
sg24
I0
sg25
I774401
sg26
S'0.000'
p509
sg28
I0
ssS'KEAN STEVEN J'
p510
(dp511
g3
I12754
sg4
I0
sg5
I41953
sg6
I0
sg7
I0
sg8
S'steven.kean@enron.com'
p512
sg10
I300000
sg11
S'0.011'
p513
sg13
I0
sg14
I3639
sg15
I0
sg16
I6759
sg17
I1231
sg18
I0
sg19
I1000000
sg20
I6153642
sg21
I140
sg22
I387
sg23
I4131594
sg24
I404338
sg25
I1747522
sg26
S'0.057'
p514
sg28
I2022048
ssS'FOWLER PEGGY'
p515
(dp516
g3
I517
sg4
I0
sg5
I0
sg6
I0
sg7
I0
sg8
S'kulvinder.fowler@enron.com'
p517
sg10
I0
sg11
S'0.000'
p518
sg13
I0
sg14
I10
sg15
I0
sg16
I36
sg17
I0
sg18
I0
sg19
I0
sg20
I1884748
sg21
I0
sg22
I0
sg23
I560170
sg24
I0
sg25
I0
sg26
S'0.000'
p519
sg28
I1324578
ssS'WASAFF GEORGE'
p520
(dp521
g3
I400
sg4
I831299
sg5
I0
sg6
I0
sg7
I-583325
sg8
S'george.wasaff@enron.com'
p522
sg10
I200000
sg11
S'0.055'
p523
sg13
I0
sg14
I337
sg15
I0
sg16
I30
sg17
I1425
sg18
I0
sg19
I325000
sg20
I2056427
sg21
I22
sg22
I7
sg23
I388167
sg24
I259996
sg25
I1034395
sg26
S'0.233'
p524
sg28
I1668260
ssS'WHITE JR THOMAS E'
p525
(dp526
g3
I0
sg4
I0
sg5
I81353
sg6
I0
sg7
I0
sg8
S'thomas.white@enron.com'
p527
sg10
I0
sg11
S'0.000'
p528
sg13
I0
sg14
I0
sg15
I0
sg16
I0
sg17
I1085463
sg18
I0
sg19
I450000
sg20
I15144123
sg21
I0
sg22
I0
sg23
I13847074
sg24
I317543
sg25
I1934359
sg26
S'0.000'
p529
sg28
I1297049
ssS'CHRISTODOULOU DIOMEDES'
p530
(dp531
g3
I0
sg4
I0
sg5
I0
sg6
I0
sg7
I0
sg8
S'diomedes.christodoulou@enron.com'
p532
sg10
I0
sg11
S'0.000'
p533
sg13
I0
sg14
I0
sg15
I0
sg16
I0
sg17
I0
sg18
I0
sg19
I0
sg20
I6077885
sg21
I0
sg22
I0
sg23
I950730
sg24
I0
sg25
I0
sg26
S'0.000'
p534
sg28
I5127155
ssS'ALLEN PHILLIP K'
p535
(dp536
g3
I2902
sg4
I2869717
sg5
I13868
sg6
I0
sg7
I-3081055
sg8
S'phillip.allen@enron.com'
p537
sg10
I304805
sg11
S'0.016'
p538
sg13
I-126027
sg14
I1407
sg15
I0
sg16
I2195
sg17
I152
sg18
I0
sg19
I4175000
sg20
I1729541
sg21
I47
sg22
I65
sg23
I126027
sg24
I201955
sg25
I4484442
sg26
S'0.030'
p539
sg28
I1729541
ssS'SHARP VICTORIA T'
p540
(dp541
g3
I3136
sg4
I187469
sg5
I116337
sg6
I0
sg7
I0
sg8
S'vicki.sharp@enron.com'
p542
sg10
I422158
sg11
S'0.008'
p543
sg13
I0
sg14
I2477
sg15
I0
sg16
I136
sg17
I2401
sg18
I0
sg19
I600000
sg20
I494136
sg21
I24
sg22
I6
sg23
I213063
sg24
I248146
sg25
I1576511
sg26
S'0.044'
p544
sg28
I281073
ssS'JAEDICKE ROBERT'
p545
(dp546
g3
I0
sg4
I0
sg5
I0
sg6
I0
sg7
I-25000
sg8
g31
sg10
I0
sg11
S'0.000'
p547
sg13
I-44093
sg14
I0
sg15
I0
sg16
I0
sg17
I0
sg18
I108750
sg19
I0
sg20
I431750
sg21
I0
sg22
I0
sg23
I44093
sg24
I0
sg25
I83750
sg26
S'0.000'
p548
sg28
I431750
ssS'WINOKUR JR. HERBERT S'
p549
(dp550
g3
I0
sg4
I0
sg5
I1413
sg6
I0
sg7
I-25000
sg8
g31
sg10
I0
sg11
S'0.000'
p551
sg13
I0
sg14
I0
sg15
I0
sg16
I0
sg17
I0
sg18
I108579
sg19
I0
sg20
I0
sg21
I0
sg22
I0
sg23
I0
sg24
I0
sg25
I84992
sg26
S'0.000'
p552
sg28
I0
ssS'BROWN MICHAEL'
p553
(dp554
g3
I1486
sg4
I0
sg5
I49288
sg6
I0
sg7
I0
sg8
S'michael.brown@enron.com'
p555
sg10
I0
sg11
S'0.009'
p556
sg13
I0
sg14
I761
sg15
I0
sg16
I41
sg17
I0
sg18
I0
sg19
I0
sg20
I0
sg21
I13
sg22
I1
sg23
I0
sg24
I0
sg25
I49288
sg26
S'0.024'
p557
sg28
I0
ssS'BADUM JAMES P'
p558
(dp559
g3
I0
sg4
I178980
sg5
I3486
sg6
I0
sg7
I0
sg8
g31
sg10
I0
sg11
S'0.000'
p560
sg13
I0
sg14
I0
sg15
I0
sg16
I0
sg17
I0
sg18
I0
sg19
I0
sg20
I257817
sg21
I0
sg22
I0
sg23
I0
sg24
I0
sg25
I182466
sg26
S'0.000'
p561
sg28
I257817
ssS'HUGHES JAMES A'
p562
(dp563
g3
I719
sg4
I0
sg5
I0
sg6
I0
sg7
I0
sg8
S'james.hughes@enron.com'
p564
sg10
I0
sg11
S'0.049'
p565
sg13
I0
sg14
I589
sg15
I0
sg16
I34
sg17
I0
sg18
I0
sg19
I0
sg20
I1118394
sg21
I35
sg22
I5
sg23
I363428
sg24
I0
sg25
I0
sg26
S'0.147'
p566
sg28
I754966
ssS'REYNOLDS LAWRENCE'
p567
(dp568
g3
I0
sg4
I51365
sg5
I8409
sg6
I0
sg7
I-200000
sg8
g31
sg10
I156250
sg11
S'0.000'
p569
sg13
I-140264
sg14
I0
sg15
I0
sg16
I0
sg17
I202052
sg18
I0
sg19
I100000
sg20
I4221891
sg21
I0
sg22
I0
sg23
I201483
sg24
I76399
sg25
I394475
sg26
S'0.000'
p570
sg28
I4160672
ssS'DIMICHELE RICHARD G'
p571
(dp572
g3
I0
sg4
I0
sg5
I35812
sg6
I0
sg7
I0
sg8
S'richard.dimichele@enron.com'
p573
sg10
I694862
sg11
S'0.000'
p574
sg13
I0
sg14
I0
sg15
I0
sg16
I0
sg17
I374689
sg18
I0
sg19
I1000000
sg20
I8317782
sg21
I0
sg22
I0
sg23
I126027
sg24
I262788
sg25
I2368151
sg26
S'0.000'
p575
sg28
I8191755
ssS'BHATNAGAR SANJAY'
p576
(dp577
g3
I523
sg4
I0
sg5
I0
sg6
I0
sg7
I0
sg8
S'sanjay.bhatnagar@enron.com'
p578
sg10
I0
sg11
S'0.000'
p579
sg13
I15456290
sg14
I463
sg15
I0
sg16
I29
sg17
I137864
sg18
I137864
sg19
I0
sS'total_stock_value'
p580
I0
sg21
I0
sg22
I1
sg23
I-2604490
sg24
I0
sg25
I15456290
sg26
S'0.034'
p581
sg28
I2604490
ssS'CARTER REBECCA C'
p582
(dp583
g3
I312
sg4
I0
sg5
I0
sg6
I0
sg7
I-159792
sg8
S'rebecca.carter@enron.com'
p584
sg10
I75000
sg11
S'0.093'
p585
sg13
I-307301
sg14
I196
sg15
I0
sg16
I15
sg17
I540
sg18
I0
sg19
I300000
sg20
I0
sg21
I29
sg22
I7
sg23
I307301
sg24
I261809
sg25
I477557
sg26
S'0.467'
p586
sg28
I0
ssS'BUCHANAN HAROLD G'
p587
(dp588
g3
I1088
sg4
I0
sg5
I600
sg6
I0
sg7
I0
sg8
S'john.buchanan@enron.com'
p589
sg10
I304805
sg11
S'0.000'
p590
sg13
I0
sg14
I23
sg15
I0
sg16
I125
sg17
I1215
sg18
I0
sg19
I500000
sg20
I1014505
sg21
I0
sg22
I0
sg23
I189041
sg24
I248017
sg25
I1054637
sg26
S'0.000'
p591
sg28
I825464
ssS'YEAP SOON'
p592
(dp593
g3
I0
sg4
I0
sg5
I55097
sg6
I0
sg7
I0
sg8
g31
sg10
I0
sg11
S'0.000'
p594
sg13
I0
sg14
I0
sg15
I0
sg16
I0
sg17
I0
sg18
I0
sg19
I0
sg20
I192758
sg21
I0
sg22
I0
sg23
I0
sg24
I0
sg25
I55097
sg26
S'0.000'
p595
sg28
I192758
ssS'MURRAY JULIA H'
p596
(dp597
g3
I2192
sg4
I0
sg5
I57580
sg6
I0
sg7
I0
sg8
S'julia.murray@enron.com'
p598
sg10
I125000
sg11
S'0.005'
p599
sg13
I0
sg14
I395
sg15
I0
sg16
I45
sg17
I330
sg18
I0
sg19
I400000
sg20
I597461
sg21
I11
sg22
I2
sg23
I196983
sg24
I229284
sg25
I812194
sg26
S'0.044'
p600
sg28
I400478
ssS'GARLAND C KEVIN'
p601
(dp602
g3
I209
sg4
I0
sg5
I48405
sg6
I0
sg7
I0
sg8
S'kevin.garland@enron.com'
p603
sg10
I375304
sg11
S'0.048'
p604
sg13
I0
sg14
I178
sg15
I0
sg16
I44
sg17
I60814
sg18
I0
sg19
I850000
sg20
I896153
sg21
I10
sg22
I27
sg23
I259907
sg24
I231946
sg25
I1566469
sg26
S'0.614'
p605
sg28
I636246
ssS'DODSON KEITH'
p606
(dp607
g3
I176
sg4
I0
sg5
I28164
sg6
I0
sg7
I0
sg8
S'keith.dodson@enron.com'
p608
sg10
I0
sg11
S'0.057'
p609
sg13
I0
sg14
I114
sg15
I0
sg16
I14
sg17
I774
sg18
I0
sg19
I70000
sg20
I0
sg21
I10
sg22
I3
sg23
I0
sg24
I221003
sg25
I319941
sg26
S'0.214'
p610
sg28
I0
ssS'YEAGER F SCOTT'
p611
(dp612
g3
I0
sg4
I0
sg5
I53947
sg6
I1
sg7
I0
sg8
S'scott.yeager@enron.com'
p613
sg10
I0
sg11
S'0.000'
p614
sg13
I0
sg14
I0
sg15
I0
sg16
I0
sg17
I147950
sg18
I0
sg19
I0
sg20
I11884758
sg21
I0
sg22
I0
sg23
I3576206
sg24
I158403
sg25
I360300
sg26
S'0.000'
p615
sg28
I8308552
ssS'HIRKO JOSEPH'
p616
(dp617
g3
I0
sg4
I10259
sg5
I77978
sg6
I1
sg7
I0
sg8
S'joe.hirko@enron.com'
p618
sg10
I0
sg11
S'0.000'
p619
sg13
I0
sg14
I0
sg15
I0
sg16
I0
sg17
I2856
sg18
I0
sg19
I0
sg20
I30766064
sg21
I0
sg22
I0
sg23
I0
sg24
I0
sg25
I91093
sg26
S'0.000'
p620
sg28
I30766064
ssS'DIETRICH JANET R'
p621
(dp622
g3
I2572
sg4
I0
sg5
I3475
sg6
I0
sg7
I0
sg8
S'janet.dietrich@enron.com'
p623
sg10
I556416
sg11
S'0.119'
p624
sg13
I0
sg14
I1902
sg15
I0
sg16
I63
sg17
I473
sg18
I0
sg19
I600000
sg20
I1865087
sg21
I305
sg22
I14
sg23
I315068
sg24
I250100
sg25
I1410464
sg26
S'0.222'
p625
sg28
I1550019
ssS'DERRICK JR. JAMES V'
p626
(dp627
g3
I2181
sg4
I0
sg5
I51124
sg6
I0
sg7
I-1284000
sg8
S'james.derrick@enron.com'
p628
sg10
I484000
sg11
S'0.029'
p629
sg13
I-1787380
sg14
I1401
sg15
I0
sg16
I909
sg17
I7482
sg18
I0
sg19
I800000
sg20
I8831913
sg21
I64
sg22
I20
sg23
I1787380
sg24
I492375
sg25
I550981
sg26
S'0.022'
p630
sg28
I8831913
ssS'FREVERT MARK A'
p631
(dp632
g3
I3275
sg4
I6426990
sg5
I86987
sg6
I0
sg7
I-3367011
sg8
S'mark.frevert@enron.com'
p633
sg10
I1617011
sg11
S'0.074'
p634
sg13
I0
sg14
I2979
sg15
I2000000
sg16
I21
sg17
I7427621
sg18
I0
sg19
I2000000
sg20
I14622185
sg21
I242
sg22
I6
sg23
I4188667
sg24
I1060932
sg25
I17252530
sg26
S'0.286'
p635
sg28
I10433518
ssS'PAI LOU L'
p636
(dp637
g3
I0
sg4
I0
sg5
I32047
sg6
I0
sg7
I0
sg8
S'lou.pai@enron.com'
p638
sg10
I0
sg11
S'0.000'
p639
sg13
I0
sg14
I0
sg15
I0
sg16
I0
sg17
I1829457
sg18
I0
sg19
I1000000
sg20
I23817930
sg21
I0
sg22
I0
sg23
I8453763
sg24
I261879
sg25
I3123383
sg26
S'0.000'
p640
sg28
I15364167
ssS'BAY FRANKLIN R'
p641
(dp642
g3
I0
sg4
I260455
sg5
I129142
sg6
I0
sg7
I-201641
sg8
S'frank.bay@enron.com'
p643
sg10
I0
sg11
S'0.000'
p644
sg13
I-82782
sg14
I0
sg15
I0
sg16
I0
sg17
I69
sg18
I0
sg19
I400000
sg20
I63014
sg21
I0
sg22
I0
sg23
I145796
sg24
I239671
sg25
I827696
sg26
S'0.000'
p645
sg28
I0
ssS'HAYSLETT RODERICK J'
p646
(dp647
g3
I2649
sg4
I0
sg5
I0
sg6
I0
sg7
I0
sg8
S'rod.hayslett@enron.com'
p648
sg10
I0
sg11
S'0.013'
p649
sg13
I0
sg14
I571
sg15
I0
sg16
I1061
sg17
I0
sg18
I0
sg19
I0
sg20
I346663
sg21
I35
sg22
I38
sg23
I346663
sg24
I0
sg25
I0
sg26
S'0.036'
p650
sg28
I0
ssS'FUGH JOHN L'
p651
(dp652
g3
I0
sg4
I50591
sg5
I0
sg6
I0
sg7
I0
sg8
g31
sg10
I0
sg11
S'0.000'
p653
sg13
I0
sg14
I0
sg15
I0
sg16
I0
sg17
I0
sg18
I0
sg19
I0
sg20
I176378
sg21
I0
sg22
I0
sg23
I0
sg24
I0
sg25
I50591
sg26
S'0.000'
p654
sg28
I176378
ssS'FALLON JAMES B'
p655
(dp656
g3
I1755
sg4
I0
sg5
I95924
sg6
I0
sg7
I0
sg8
S'jim.fallon@enron.com'
p657
sg10
I374347
sg11
S'0.024'
p658
sg13
I0
sg14
I1604
sg15
I0
sg16
I75
sg17
I401481
sg18
I0
sg19
I2500000
sg20
I2332399
sg21
I42
sg22
I37
sg23
I1392142
sg24
I304588
sg25
I3676340
sg26
S'0.493'
p659
sg28
I940257
ssS'KOENIG MARK E'
p660
(dp661
g3
I2374
sg4
I0
sg5
I127017
sg6
I1
sg7
I0
sg8
S'mark.koenig@enron.com'
p662
sg10
I300000
sg11
S'0.022'
p663
sg13
I0
sg14
I2271
sg15
I0
sg16
I61
sg17
I150458
sg18
I0
sg19
I700000
sg20
I1920055
sg21
I53
sg22
I15
sg23
I1248318
sg24
I309946
sg25
I1587421
sg26
S'0.246'
p664
sg28
I671737
ssS'SAVAGE FRANK'
p665
(dp666
g3
I0
sg4
I0
sg5
I0
sg6
I0
sg7
I-121284
sg8
g31
sg10
I0
sg11
S'0.000'
p667
sg13
I0
sg14
I0
sg15
I0
sg16
I0
sg17
I0
sg18
I125034
sg19
I0
sg20
I0
sg21
I0
sg22
I0
sg23
I0
sg24
I0
sg25
I3750
sg26
S'0.000'
p668
sg28
I0
ssS'IZZO LAWRENCE L'
p669
(dp670
g3
I496
sg4
I0
sg5
I28093
sg6
I0
sg7
I0
sg8
S'larry.izzo@enron.com'
p671
sg10
I312500
sg11
S'0.056'
p672
sg13
I0
sg14
I437
sg15
I0
sg16
I19
sg17
I1553729
sg18
I0
sg19
I0
sg20
I5819980
sg21
I28
sg22
I5
sg23
I3654808
sg24
I85274
sg25
I1979596
sg26
S'0.263'
p673
sg28
I2165172
ssS'TILNEY ELIZABETH A'
p674
(dp675
g3
I460
sg4
I0
sg5
I0
sg6
I0
sg7
I-575000
sg8
S'elizabeth.tilney@enron.com'
p676
sg10
I275000
sg11
S'0.022'
p677
sg13
I0
sg14
I379
sg15
I0
sg16
I19
sg17
I152055
sg18
I0
sg19
I300000
sg20
I1168042
sg21
I10
sg22
I11
sg23
I576792
sg24
I247338
sg25
I399393
sg26
S'0.579'
p678
sg28
I591250
ssS'MARTIN AMANDA K'
p679
(dp680
g3
I1522
sg4
I85430
sg5
I8211
sg6
I0
sg7
I0
sg8
S'a..martin@enron.com'
p681
sg10
I5145434
sg11
S'0.005'
p682
sg13
I0
sg14
I477
sg15
I0
sg16
I230
sg17
I2818454
sg18
I0
sg19
I0
sg20
I2070306
sg21
I8
sg22
I0
sg23
I0
sg24
I349487
sg25
I8407016
sg26
S'0.000'
p683
sg28
I2070306
ssS'BUY RICHARD B'
p684
(dp685
g3
I3523
sg4
I649584
sg5
I0
sg6
I0
sg7
I-694862
sg8
S'rick.buy@enron.com'
p686
sg10
I769862
sg11
S'0.044'
p687
sg13
I0
sg14
I2333
sg15
I0
sg16
I1053
sg17
I400572
sg18
I0
sg19
I900000
sg20
I3444470
sg21
I156
sg22
I71
sg23
I901657
sg24
I330546
sg25
I2355702
sg26
S'0.067'
p688
sg28
I2542813
ssS'GRAMM WENDY L'
p689
(dp690
g3
I0
sg4
I0
sg5
I0
sg6
I0
sg7
I0
sg8
g31
sg10
I0
sg11
S'0.000'
p691
sg13
I0
sg14
I0
sg15
I0
sg16
I0
sg17
I0
sg18
I119292
sg19
I0
sg20
I0
sg21
I0
sg22
I0
sg23
I0
sg24
I0
sg25
I119292
sg26
S'0.000'
p692
sg28
I0
ssS'CAUSEY RICHARD A'
p693
(dp694
g3
I1892
sg4
I0
sg5
I30674
sg6
I1
sg7
I-235000
sg8
S'richard.causey@enron.com'
p695
sg10
I350000
sg11
S'0.031'
p696
sg13
I0
sg14
I1585
sg15
I0
sg16
I49
sg17
I307895
sg18
I0
sg19
I1000000
sg20
I2502063
sg21
I58
sg22
I12
sg23
I2502063
sg24
I415189
sg25
I1868758
sg26
S'0.245'
p697
sg28
I0
ssS'TAYLOR MITCHELL S'
p698
(dp699
g3
I533
sg4
I227449
sg5
I0
sg6
I0
sg7
I0
sg8
S'mitchell.taylor@enron.com'
p700
sg10
I0
sg11
S'0.000'
p701
sg13
I0
sg14
I300
sg15
I0
sg16
I29
sg17
I0
sg18
I0
sg19
I600000
sg20
I3745048
sg21
I0
sg22
I0
sg23
I563798
sg24
I265214
sg25
I1092663
sg26
S'0.000'
p702
sg28
I3181250
ssS'DONAHUE JR JEFFREY M'
p703
(dp704
g3
I865
sg4
I0
sg5
I96268
sg6
I0
sg7
I-300000
sg8
S'jeff.donahue@enron.com'
p705
sg10
I0
sg11
S'0.217'
p706
sg13
I0
sg14
I772
sg15
I0
sg16
I22
sg17
I891
sg18
I0
sg19
I800000
sg20
I1080988
sg21
I188
sg22
I11
sg23
I315068
sg24
I278601
sg25
I875760
sg26
S'0.500'
p707
sg28
I765920
ssS'GLISAN JR BEN F'
p708
(dp709
g3
I873
sg4
I0
sg5
I125978
sg6
I1
sg7
I0
sg8
S'ben.glisan@enron.com'
p710
sg10
I71023
sg11
S'0.060'
p711
sg13
I0
sg14
I874
sg15
I0
sg16
I16
sg17
I200308
sg18
I0
sg19
I600000
sg20
I778546
sg21
I52
sg22
I6
sg23
I393818
sg24
I274975
sg25
I1272284
sg26
S'0.375'
p712
sg28
I384728
ss.